target datalayout = "e-m:e-p270:32:32-p271:32:32-p272:64:64-i64:64-i128:128-f80:128-n8:16:32:64-S128"
target triple = "x86_64-pc-linux-gnu"

%struct.strbuf = type { i64, i64, ptr }
%struct.fsck_options = type { ptr, ptr, i32, i32, ptr, %struct.oidset, %struct.oidset, %struct.oidset, %struct.oidset, %struct.oidset, ptr }
%struct.oidset = type { %struct.kh_oid_set }
%struct.kh_oid_set = type { i32, i32, i32, i32, ptr, ptr, ptr }
%struct.object_id = type { [32 x i8], i32 }
%struct.repository = type { ptr, ptr, ptr, ptr, ptr, %struct.strmap, %struct.strmap, %struct.repo_path_cache, ptr, ptr, ptr, ptr, %struct.repo_settings, ptr, ptr, ptr, ptr, ptr, ptr, i32, i32, i32, ptr, ptr, i32, i32, i8 }
%struct.strmap = type { %struct.hashmap, ptr, i8 }
%struct.hashmap = type { ptr, ptr, ptr, i32, i32, i32, i32, i8 }
%struct.repo_path_cache = type { ptr, ptr, ptr, ptr, ptr, ptr, ptr }
%struct.repo_settings = type { i32, i32, i32, i32, i32, i32, i32, i32, i32, i32, i32, i32, ptr, i32, i32, i32, i32, i32, i32, i32, i64, i64, i64 }
%struct.raw_object_store = type { ptr, ptr, ptr, i32, ptr, ptr, i8, %union.pthread_mutex_t, ptr, i8, ptr, ptr, %struct.list_head, %struct.anon, %struct.hashmap, i64, i8 }
%union.pthread_mutex_t = type { %struct.__pthread_mutex_s }
%struct.__pthread_mutex_s = type { i32, i32, i32, i32, i32, i16, i16, %struct.__pthread_internal_list }
%struct.__pthread_internal_list = type { ptr, ptr }
%struct.list_head = type { ptr, ptr }
%struct.anon = type { ptr, i32 }
%struct.oidmap = type { %struct.hashmap }

@__const.cmd_mktag.buf = private unnamed_addr constant %struct.strbuf { i64 0, i64 0, ptr @strbuf_slopbuf }, align 8
@builtin_mktag_usage = internal constant [2 x ptr] [ptr @.str.6, ptr null], align 16
@.str.2 = private unnamed_addr constant [26 x i8] c"could not read from stdin\00", align 1
@.str.3 = private unnamed_addr constant [48 x i8] c"tag on stdin did not pass our strict fsck check\00", align 1
@.str.4 = private unnamed_addr constant [45 x i8] c"tag on stdin did not refer to a valid object\00", align 1
@.str.5 = private unnamed_addr constant [25 x i8] c"unable to write tag file\00", align 1
@the_repository = external global ptr, align 8
@.str.12 = private unnamed_addr constant [34 x i8] c"could not read tagged object '%s'\00", align 1
@.str.13 = private unnamed_addr constant [47 x i8] c"object '%s' tagged as '%s', but is a '%s' type\00", align 1

; Function Attrs: inlinehint nounwind uwtable
define internal ptr @lookup_replace_object(ptr noundef %0, ptr noundef %1) #5 {
  %3 = alloca ptr, align 8
  %4 = alloca ptr, align 8
  %5 = alloca ptr, align 8
  store ptr %0, ptr %4, align 8, !tbaa !13
  store ptr %1, ptr %5, align 8, !tbaa !32
  %6 = load ptr, ptr %4, align 8, !tbaa !13
  %7 = call i32 @replace_refs_enabled(ptr noundef %6)
  %8 = icmp ne i32 %7, 0
  br i1 %8, label %9, label %28

9:                                                ; preds = %2
  %10 = load ptr, ptr %4, align 8, !tbaa !13
  %11 = getelementptr inbounds nuw %struct.repository, ptr %10, i32 0, i32 2
  %12 = load ptr, ptr %11, align 8, !tbaa !35
  %13 = getelementptr inbounds nuw %struct.raw_object_store, ptr %12, i32 0, i32 6
  %14 = load i8, ptr %13, align 8
  %15 = and i8 %14, 1
  %16 = zext i8 %15 to i32
  %17 = icmp ne i32 %16, 0
  br i1 %17, label %18, label %30

18:                                               ; preds = %9
  %19 = load ptr, ptr %4, align 8, !tbaa !13
  %20 = getelementptr inbounds nuw %struct.repository, ptr %19, i32 0, i32 2
  %21 = load ptr, ptr %20, align 8, !tbaa !35
  %22 = getelementptr inbounds nuw %struct.raw_object_store, ptr %21, i32 0, i32 5
  %23 = load ptr, ptr %22, align 8, !tbaa !53
  %24 = getelementptr inbounds nuw %struct.oidmap, ptr %23, i32 0, i32 0
  %25 = getelementptr inbounds nuw %struct.hashmap, ptr %24, i32 0, i32 4
  %26 = load i32, ptr %25, align 4, !tbaa !66
  %27 = icmp eq i32 %26, 0
  br i1 %27, label %28, label %30

28:                                               ; preds = %18, %2
  %29 = load ptr, ptr %5, align 8, !tbaa !32
  store ptr %29, ptr %3, align 8
  br label %34

30:                                               ; preds = %18, %9
  %31 = load ptr, ptr %4, align 8, !tbaa !13
  %32 = load ptr, ptr %5, align 8, !tbaa !32
  %33 = call ptr @do_lookup_replace_object(ptr noundef %31, ptr noundef %32)
  store ptr %33, ptr %3, align 8
  br label %34

34:                                               ; preds = %30, %28
  %35 = load ptr, ptr %3, align 8
  ret ptr %35
}

; Function Attrs: inlinehint nounwind uwtable
define internal i32 @write_object_file(ptr noundef %0, i64 noundef %1, i32 noundef %2, ptr noundef %3) #5 {
  %5 = alloca ptr, align 8
  %6 = alloca i64, align 8
  %7 = alloca i32, align 4
  %8 = alloca ptr, align 8
  store ptr %0, ptr %5, align 8, !tbaa !29
  store i64 %1, ptr %6, align 8, !tbaa !34
  store i32 %2, ptr %7, align 4, !tbaa !4
  store ptr %3, ptr %8, align 8, !tbaa !32
  %9 = load ptr, ptr %5, align 8, !tbaa !29
  %10 = load i64, ptr %6, align 8, !tbaa !34
  %11 = load i32, ptr %7, align 4, !tbaa !4
  %12 = load ptr, ptr %8, align 8, !tbaa !32
  %13 = call i32 @write_object_file_flags(ptr noundef %9, i64 noundef %10, i32 noundef %11, ptr noundef %12, ptr noundef null, i32 noundef 0)
  ret i32 %13
}

; Function Attrs: nounwind uwtable
define internal i32 @verify_object_in_tag(ptr noundef %0, ptr noundef %1) #0 {
  %3 = alloca ptr, align 8
  %4 = alloca ptr, align 8
  %5 = alloca i32, align 4
  %6 = alloca i32, align 4
  %7 = alloca i64, align 8
  %8 = alloca ptr, align 8
  %9 = alloca ptr, align 8
  store ptr %0, ptr %3, align 8, !tbaa !32
  store ptr %1, ptr %4, align 8, !tbaa !33
  call void @llvm.lifetime.start.p0(i64 4, ptr %5) #7
  call void @llvm.lifetime.start.p0(i64 4, ptr %6) #7
  call void @llvm.lifetime.start.p0(i64 8, ptr %7) #7
  call void @llvm.lifetime.start.p0(i64 8, ptr %8) #7
  call void @llvm.lifetime.start.p0(i64 8, ptr %9) #7
  %10 = load ptr, ptr @the_repository, align 8, !tbaa !13
  %11 = load ptr, ptr %3, align 8, !tbaa !32
  %12 = call ptr @repo_read_object_file(ptr noundef %10, ptr noundef %11, ptr noundef %6, ptr noundef %7)
  store ptr %12, ptr %8, align 8, !tbaa !29
  %13 = load ptr, ptr %8, align 8, !tbaa !29
  %14 = icmp ne ptr %13, null
  br i1 %14, label %19, label %15

15:                                               ; preds = %2
  %16 = call ptr @_(ptr noundef @.str.12)
  %17 = load ptr, ptr %3, align 8, !tbaa !32
  %18 = call ptr @oid_to_hex(ptr noundef %17)
  call void (ptr, ...) @die(ptr noundef %16, ptr noundef %18) #8
  unreachable

19:                                               ; preds = %2
  %20 = load i32, ptr %6, align 4, !tbaa !4
  %21 = load ptr, ptr %4, align 8, !tbaa !33
  %22 = load i32, ptr %21, align 4, !tbaa !4
  %23 = icmp ne i32 %20, %22
  br i1 %23, label %24, label %33

24:                                               ; preds = %19
  %25 = call ptr @_(ptr noundef @.str.13)
  %26 = load ptr, ptr %3, align 8, !tbaa !32
  %27 = call ptr @oid_to_hex(ptr noundef %26)
  %28 = load ptr, ptr %4, align 8, !tbaa !33
  %29 = load i32, ptr %28, align 4, !tbaa !4
  %30 = call ptr @type_name(i32 noundef %29)
  %31 = load i32, ptr %6, align 4, !tbaa !4
  %32 = call ptr @type_name(i32 noundef %31)
  call void (ptr, ...) @die(ptr noundef %25, ptr noundef %27, ptr noundef %30, ptr noundef %32) #8
  unreachable

33:                                               ; preds = %19
  %34 = load ptr, ptr @the_repository, align 8, !tbaa !13
  %35 = load ptr, ptr %3, align 8, !tbaa !32
  %36 = call ptr @lookup_replace_object(ptr noundef %34, ptr noundef %35)
  store ptr %36, ptr %9, align 8, !tbaa !32
  %37 = load ptr, ptr @the_repository, align 8, !tbaa !13
  %38 = load ptr, ptr %9, align 8, !tbaa !32
  %39 = load ptr, ptr %8, align 8, !tbaa !29
  %40 = load i64, ptr %7, align 8, !tbaa !34
  %41 = load ptr, ptr %4, align 8, !tbaa !33
  %42 = load i32, ptr %41, align 4, !tbaa !4
  %43 = call i32 @check_object_signature(ptr noundef %37, ptr noundef %38, ptr noundef %39, i64 noundef %40, i32 noundef %42)
  store i32 %43, ptr %5, align 4, !tbaa !4
  %44 = load ptr, ptr %8, align 8, !tbaa !29
  call void @free(ptr noundef %44) #7
  %45 = load i32, ptr %5, align 4, !tbaa !4
  call void @llvm.lifetime.end.p0(i64 8, ptr %9) #7
  call void @llvm.lifetime.end.p0(i64 8, ptr %8) #7
  call void @llvm.lifetime.end.p0(i64 8, ptr %7) #7
  call void @llvm.lifetime.end.p0(i64 4, ptr %6) #7
  call void @llvm.lifetime.end.p0(i64 4, ptr %5) #7
  ret i32 %45
}

; Function Attrs: inlinehint nounwind uwtable
define internal void @git_config(ptr noundef %0, ptr noundef %1) #5 {
  %3 = alloca ptr, align 8
  %4 = alloca ptr, align 8
  store ptr %0, ptr %3, align 8, !tbaa !29
  store ptr %1, ptr %4, align 8, !tbaa !29
  %5 = load ptr, ptr @the_repository, align 8, !tbaa !13
  %6 = load ptr, ptr %3, align 8, !tbaa !29
  %7 = load ptr, ptr %4, align 8, !tbaa !29
  call void @repo_config(ptr noundef %5, ptr noundef %6, ptr noundef %7)
  ret void
}

; Function Attrs: nounwind uwtable
define dso_local i32 @cmd_mktag(i32 noundef %0, ptr noundef %1, ptr noundef %2, ptr noundef %3) #0 {
  %5 = alloca i32, align 4
  %6 = alloca ptr, align 8
  %7 = alloca ptr, align 8
  %8 = alloca ptr, align 8
  %9 = alloca %struct.strbuf, align 8
  %10 = alloca %struct.object_id, align 4
  %11 = alloca i32, align 4
  %12 = alloca %struct.object_id, align 4
  store i32 %0, ptr %5, align 4, !tbaa !4
  store ptr %1, ptr %6, align 8, !tbaa !8
  store ptr %2, ptr %7, align 8, !tbaa !11
  store ptr %3, ptr %8, align 8, !tbaa !13
  call void @llvm.lifetime.start.p0(i64 24, ptr %9) #7
  call void @llvm.memcpy.p0.p0.i64(ptr align 8 %9, ptr align 8 @__const.cmd_mktag.buf, i64 24, i1 false)
  call void @llvm.lifetime.start.p0(i64 36, ptr %10) #7
  call void @llvm.lifetime.start.p0(i64 4, ptr %11) #7
  call void @llvm.lifetime.start.p0(i64 36, ptr %12) #7
  %13 = load i32, ptr %5, align 4, !tbaa !4
  %14 = load ptr, ptr %6, align 8, !tbaa !8
  %15 = load ptr, ptr %7, align 8, !tbaa !11
  %16 = call i32 @parse_options(i32 noundef %13, ptr noundef %14, ptr noundef %15, ptr noundef @cmd_mktag.builtin_mktag_options, ptr noundef @builtin_mktag_usage, i32 noundef 0)
  store i32 %16, ptr %5, align 4, !tbaa !4
  %17 = call i64 @strbuf_read(ptr noundef %9, i32 noundef 0, i64 noundef 0)
  %18 = icmp slt i64 %17, 0
  br i1 %18, label %19, label %21

19:                                               ; preds = %4
  %20 = call ptr @_(ptr noundef @.str.2)
  call void (ptr, ...) @die_errno(ptr noundef %20) #8
  unreachable

21:                                               ; preds = %4
  store ptr @mktag_fsck_error_func, ptr getelementptr inbounds nuw (%struct.fsck_options, ptr @fsck_options, i32 0, i32 1), align 8, !tbaa !15
  call void @fsck_set_msg_type_from_ids(ptr noundef @fsck_options, i32 noundef 65, i32 noundef 4)
  call void @git_config(ptr noundef @git_fsck_config, ptr noundef @fsck_options)
  %22 = getelementptr inbounds nuw %struct.strbuf, ptr %9, i32 0, i32 2
  %23 = load ptr, ptr %22, align 8, !tbaa !22
  %24 = getelementptr inbounds nuw %struct.strbuf, ptr %9, i32 0, i32 1
  %25 = load i64, ptr %24, align 8, !tbaa !25
  %26 = call i32 @fsck_tag_standalone(ptr noundef null, ptr noundef %23, i64 noundef %25, ptr noundef @fsck_options, ptr noundef %10, ptr noundef %11)
  %27 = icmp ne i32 %26, 0
  br i1 %27, label %28, label %30

28:                                               ; preds = %21
  %29 = call ptr @_(ptr noundef @.str.3)
  call void (ptr, ...) @die(ptr noundef %29) #8
  unreachable

30:                                               ; preds = %21
  %31 = call i32 @verify_object_in_tag(ptr noundef %10, ptr noundef %11)
  %32 = icmp slt i32 %31, 0
  br i1 %32, label %33, label %35

33:                                               ; preds = %30
  %34 = call ptr @_(ptr noundef @.str.4)
  call void (ptr, ...) @die(ptr noundef %34) #8
  unreachable

35:                                               ; preds = %30
  %36 = getelementptr inbounds nuw %struct.strbuf, ptr %9, i32 0, i32 2
  %37 = load ptr, ptr %36, align 8, !tbaa !22
  %38 = getelementptr inbounds nuw %struct.strbuf, ptr %9, i32 0, i32 1
  %39 = load i64, ptr %38, align 8, !tbaa !25
  %40 = call i32 @write_object_file(ptr noundef %37, i64 noundef %39, i32 noundef 4, ptr noundef %12)
  %41 = icmp slt i32 %40, 0
  br i1 %41, label %42, label %44

42:                                               ; preds = %35
  %43 = call ptr @_(ptr noundef @.str.5)
  call void (ptr, ...) @die(ptr noundef %43) #8
  unreachable

44:                                               ; preds = %35
  call void @strbuf_release(ptr noundef %9)
  %45 = call ptr @oid_to_hex(ptr noundef %12)
  %46 = call i32 @puts(ptr noundef %45)
  call void @llvm.lifetime.end.p0(i64 36, ptr %12) #7
  call void @llvm.lifetime.end.p0(i64 4, ptr %11) #7
  call void @llvm.lifetime.end.p0(i64 36, ptr %10) #7
  call void @llvm.lifetime.end.p0(i64 24, ptr %9) #7
  ret i32 0
}