; Function Attrs: nounwind uwtable
define dso_local noundef i32 @cmd_mktag(i32 noundef %0, ptr noundef %1, ptr noundef %2, ptr noundef readnone captures(none) %3) local_unnamed_addr #0 {
  %5 = alloca i32, align 4
  %6 = alloca i64, align 8
  %7 = alloca %struct.strbuf, align 8
  %8 = alloca %struct.object_id, align 4
  %9 = alloca i32, align 4
  %10 = alloca %struct.object_id, align 4
  call void @llvm.lifetime.start.p0(i64 24, ptr nonnull %7) #9
  call void @llvm.memcpy.p0.p0.i64(ptr noundef nonnull align 8 dereferenceable(24) %7, ptr noundef nonnull align 8 dereferenceable(24) @__const.cmd_mktag.buf, i64 24, i1 false)
  call void @llvm.lifetime.start.p0(i64 36, ptr nonnull %8) #9
  call void @llvm.lifetime.start.p0(i64 4, ptr nonnull %9) #9
  call void @llvm.lifetime.start.p0(i64 36, ptr nonnull %10) #9
  %11 = tail call i32 @parse_options(i32 noundef %0, ptr noundef %1, ptr noundef %2, ptr noundef nonnull @cmd_mktag.builtin_mktag_options, ptr noundef nonnull @builtin_mktag_usage, i32 noundef 0) #9
  %12 = call i64 @strbuf_read(ptr noundef nonnull %7, i32 noundef 0, i64 noundef 0) #9
  %13 = icmp slt i64 %12, 0
  br i1 %13, label %14, label %16

14:                                               ; preds = %4
  %15 = call fastcc ptr @_(ptr noundef nonnull @.str.2)
  call void (ptr, ...) @die_errno(ptr noundef %15) #10
  unreachable

16:                                               ; preds = %4
  store ptr @mktag_fsck_error_func, ptr getelementptr inbounds nuw (i8, ptr @fsck_options, i64 8), align 8, !tbaa !4
  call void @fsck_set_msg_type_from_ids(ptr noundef nonnull @fsck_options, i32 noundef 65, i32 noundef 4) #9
  %17 = load ptr, ptr @the_repository, align 8, !tbaa !15
  call void @repo_config(ptr noundef %17, ptr noundef nonnull @git_fsck_config, ptr noundef nonnull @fsck_options) #9
  %18 = getelementptr inbounds nuw i8, ptr %7, i64 16
  %19 = load ptr, ptr %18, align 8, !tbaa !17
  %20 = getelementptr inbounds nuw i8, ptr %7, i64 8
  %21 = load i64, ptr %20, align 8, !tbaa !21
  %22 = call i32 @fsck_tag_standalone(ptr noundef null, ptr noundef %19, i64 noundef %21, ptr noundef nonnull @fsck_options, ptr noundef nonnull %8, ptr noundef nonnull %9) #9
  %.not = icmp eq i32 %22, 0
  br i1 %.not, label %25, label %23

23:                                               ; preds = %16
  %24 = call fastcc ptr @_(ptr noundef nonnull @.str.3)
  call void (ptr, ...) @die(ptr noundef %24) #10
  unreachable

25:                                               ; preds = %16
  call void @llvm.lifetime.start.p0(i64 4, ptr nonnull %5) #9
  call void @llvm.lifetime.start.p0(i64 8, ptr nonnull %6) #9
  %26 = load ptr, ptr @the_repository, align 8, !tbaa !15
  %27 = call ptr @repo_read_object_file(ptr noundef %26, ptr noundef nonnull %8, ptr noundef nonnull %5, ptr noundef nonnull %6) #9
  %.not.i = icmp eq ptr %27, null
  br i1 %.not.i, label %28, label %31

28:                                               ; preds = %25
  %29 = call fastcc ptr @_(ptr noundef nonnull @.str.12)
  %30 = call ptr @oid_to_hex(ptr noundef nonnull %8) #9
  call void (ptr, ...) @die(ptr noundef %29, ptr noundef %30) #10
  unreachable

31:                                               ; preds = %25
  %32 = load i32, ptr %5, align 4, !tbaa !22
  %33 = load i32, ptr %9, align 4, !tbaa !22
  %.not11.i = icmp eq i32 %32, %33
  br i1 %.not11.i, label %41, label %34

34:                                               ; preds = %31
  %35 = call fastcc ptr @_(ptr noundef nonnull @.str.13)
  %36 = call ptr @oid_to_hex(ptr noundef nonnull %8) #9
  %37 = load i32, ptr %9, align 4, !tbaa !22
  %38 = call ptr @type_name(i32 noundef %37) #9
  %39 = load i32, ptr %5, align 4, !tbaa !22
  %40 = call ptr @type_name(i32 noundef %39) #9
  call void (ptr, ...) @die(ptr noundef %35, ptr noundef %36, ptr noundef %38, ptr noundef %40) #10
  unreachable

41:                                               ; preds = %31
  %42 = load ptr, ptr @the_repository, align 8, !tbaa !15
  %43 = call i32 @replace_refs_enabled(ptr noundef %42) #9
  %.not.i.i = icmp eq i32 %43, 0
  br i1 %.not.i.i, label %verify_object_in_tag.exit, label %44

44:                                               ; preds = %41
  %45 = getelementptr inbounds nuw i8, ptr %42, i64 16
  %46 = load ptr, ptr %45, align 8, !tbaa !23
  %47 = getelementptr inbounds nuw i8, ptr %46, i64 48
  %48 = load i8, ptr %47, align 8
  %49 = and i8 %48, 1
  %.not7.i.i = icmp eq i8 %49, 0
  br i1 %.not7.i.i, label %56, label %50

50:                                               ; preds = %44
  %51 = getelementptr inbounds nuw i8, ptr %46, i64 40
  %52 = load ptr, ptr %51, align 8, !tbaa !41
  %53 = getelementptr inbounds nuw i8, ptr %52, i64 28
  %54 = load i32, ptr %53, align 4, !tbaa !54
  %55 = icmp eq i32 %54, 0
  br i1 %55, label %verify_object_in_tag.exit, label %56

56:                                               ; preds = %50, %44
  %57 = call ptr @do_lookup_replace_object(ptr noundef nonnull %42, ptr noundef nonnull %8) #9
  br label %verify_object_in_tag.exit

verify_object_in_tag.exit:                        ; preds = %41, %50, %56
  %.0.i.i = phi ptr [ %57, %56 ], [ %8, %50 ], [ %8, %41 ]
  %58 = load ptr, ptr @the_repository, align 8, !tbaa !15
  %59 = load i64, ptr %6, align 8, !tbaa !56
  %60 = load i32, ptr %9, align 4, !tbaa !22
  %61 = call i32 @check_object_signature(ptr noundef %58, ptr noundef %.0.i.i, ptr noundef nonnull %27, i64 noundef %59, i32 noundef %60) #9
  call void @free(ptr noundef nonnull %27) #9
  call void @llvm.lifetime.end.p0(i64 8, ptr nonnull %6) #9
  call void @llvm.lifetime.end.p0(i64 4, ptr nonnull %5) #9
  %62 = icmp slt i32 %61, 0
  br i1 %62, label %63, label %65

63:                                               ; preds = %verify_object_in_tag.exit
  %64 = call fastcc ptr @_(ptr noundef nonnull @.str.4)
  call void (ptr, ...) @die(ptr noundef %64) #10
  unreachable

65:                                               ; preds = %verify_object_in_tag.exit
  %66 = load ptr, ptr %18, align 8, !tbaa !17
  %67 = load i64, ptr %20, align 8, !tbaa !21
  %68 = call i32 @write_object_file_flags(ptr noundef %66, i64 noundef %67, i32 noundef 4, ptr noundef nonnull %10, ptr noundef null, i32 noundef 0) #9
  %69 = icmp slt i32 %68, 0
  br i1 %69, label %70, label %72

70:                                               ; preds = %65
  %71 = call fastcc ptr @_(ptr noundef nonnull @.str.5)
  call void (ptr, ...) @die(ptr noundef %71) #10
  unreachable

72:                                               ; preds = %65
  call void @strbuf_release(ptr noundef nonnull %7) #9
  %73 = call ptr @oid_to_hex(ptr noundef nonnull %10) #9
  %74 = call i32 @puts(ptr noundef nonnull dereferenceable(1) %73)
  call void @llvm.lifetime.end.p0(i64 36, ptr nonnull %10) #9
  call void @llvm.lifetime.end.p0(i64 4, ptr nonnull %9) #9
  call void @llvm.lifetime.end.p0(i64 36, ptr nonnull %8) #9
  call void @llvm.lifetime.end.p0(i64 24, ptr nonnull %7) #9
  ret i32 0
}